target datalayout = "e-m:e-p270:32:32-p271:32:32-p272:64:64-i64:64-i128:128-f80:128-n8:16:32:64-S128"
target triple = "x86_64-pc-linux-gnu"

%struct._packet_info = type { ptr, ptr, i32, i32, %struct.nstime_t, %struct.nstime_t, %struct.nstime_t, i8, ptr, ptr, ptr, ptr, %struct._address, %struct._address, %struct._address, %struct._address, %struct._address, %struct._address, i32, ptr, i8, [3 x i8], %struct.anon, i32, i32, i32, i32, ptr, i8, ptr, ptr, i16, i16, i32, i32, i16, i32, i32, ptr, ptr, ptr, i8, i8, i16, i16, i16, i32, i16, i16, ptr, ptr, ptr, ptr, ptr, i32, i32 }
%struct.nstime_t = type { i64, i32 }
%struct._address = type { i32, i32, ptr, ptr }
%struct.anon = type { i8, [3 x i8] }
%struct._frame_data = type <{ i32, i32, i32, i32, i32, [4 x i8], i64, ptr, ptr, ptr, i8, i16, [5 x i8], %struct.nstime_t, %struct.nstime_t, i32, i32 }>
%struct._proto_data = type { i32, i32, ptr }
%struct._GSList = type { ptr, ptr }

@.str = private unnamed_addr constant [29 x i8] c"%s:%u: failed assertion \22%s\22\00", align 1
@.str.1 = private unnamed_addr constant [18 x i8] c"epan/proto_data.c\00", align 1
@.str.2 = private unnamed_addr constant [22 x i8] c"!\22invalid wmem scope\22\00", align 1

; Function Attrs: null_pointer_is_valid sspstrong uwtable
define ptr @p_get_proto_data(ptr noundef %0, ptr noundef %1, i32 noundef %2, i32 noundef %3) #0 {
  %5 = alloca ptr, align 8
  %6 = alloca ptr, align 8
  %7 = alloca ptr, align 8
  %8 = alloca i32, align 4
  %9 = alloca i32, align 4
  %10 = alloca %struct._proto_data, align 8
  %11 = alloca ptr, align 8
  %12 = alloca ptr, align 8
  %13 = alloca i32, align 4
  store ptr %0, ptr %6, align 8
  store ptr %1, ptr %7, align 8
  store i32 %2, ptr %8, align 4
  store i32 %3, ptr %9, align 4
  call void @llvm.lifetime.start.p0(i64 16, ptr %10) #6
  call void @llvm.lifetime.start.p0(i64 8, ptr %11) #6
  call void @llvm.lifetime.start.p0(i64 8, ptr %12) #6
  %14 = load i32, ptr %8, align 4
  %15 = getelementptr inbounds nuw %struct._proto_data, ptr %10, i32 0, i32 0
  store i32 %14, ptr %15, align 8
  %16 = load i32, ptr %9, align 4
  %17 = getelementptr inbounds nuw %struct._proto_data, ptr %10, i32 0, i32 1
  store i32 %16, ptr %17, align 4
  %18 = getelementptr inbounds nuw %struct._proto_data, ptr %10, i32 0, i32 2
  store ptr null, ptr %18, align 8
  %19 = load ptr, ptr %6, align 8
  %20 = load ptr, ptr %7, align 8
  %21 = getelementptr inbounds nuw %struct._packet_info, ptr %20, i32 0, i32 51
  %22 = load ptr, ptr %21, align 8
  %23 = icmp eq ptr %19, %22
  br i1 %23, label %24, label %29

24:                                               ; preds = %4
  %25 = load ptr, ptr %7, align 8
  %26 = getelementptr inbounds nuw %struct._packet_info, ptr %25, i32 0, i32 49
  %27 = load ptr, ptr %26, align 8
  %28 = call ptr @g_slist_find_custom(ptr noundef %27, ptr noundef %10, ptr noundef @p_compare)
  store ptr %28, ptr %12, align 8
  br label %42

29:                                               ; preds = %4
  %30 = load ptr, ptr %6, align 8
  %31 = call ptr @wmem_file_scope()
  %32 = icmp eq ptr %30, %31
  br i1 %32, label %33, label %40

33:                                               ; preds = %29
  %34 = load ptr, ptr %7, align 8
  %35 = getelementptr inbounds nuw %struct._packet_info, ptr %34, i32 0, i32 8
  %36 = load ptr, ptr %35, align 8
  %37 = getelementptr inbounds nuw %struct._frame_data, ptr %36, i32 0, i32 7
  %38 = load ptr, ptr %37, align 8
  %39 = call ptr @g_slist_find_custom(ptr noundef %38, ptr noundef %10, ptr noundef @p_compare)
  store ptr %39, ptr %12, align 8
  br label %41

40:                                               ; preds = %29
  call void (ptr, ...) @proto_report_dissector_bug(ptr noundef @.str, ptr noundef @.str.1, i32 noundef 118, ptr noundef @.str.2) #7
  unreachable

41:                                               ; preds = %33
  br label %42

42:                                               ; preds = %41, %24
  %43 = load ptr, ptr %12, align 8
  %44 = icmp ne ptr %43, null
  br i1 %44, label %45, label %52

45:                                               ; preds = %42
  %46 = load ptr, ptr %12, align 8
  %47 = getelementptr inbounds nuw %struct._GSList, ptr %46, i32 0, i32 0
  %48 = load ptr, ptr %47, align 8
  store ptr %48, ptr %11, align 8
  %49 = load ptr, ptr %11, align 8
  %50 = getelementptr inbounds nuw %struct._proto_data, ptr %49, i32 0, i32 2
  %51 = load ptr, ptr %50, align 8
  store ptr %51, ptr %5, align 8
  store i32 1, ptr %13, align 4
  br label %53

52:                                               ; preds = %42
  store ptr null, ptr %5, align 8
  store i32 1, ptr %13, align 4
  br label %53

53:                                               ; preds = %52, %45
  call void @llvm.lifetime.end.p0(i64 8, ptr %12) #6
  call void @llvm.lifetime.end.p0(i64 8, ptr %11) #6
  call void @llvm.lifetime.end.p0(i64 16, ptr %10) #6
  %54 = load ptr, ptr %5, align 8
  ret ptr %54
}