; Function Attrs: null_pointer_is_valid sspstrong uwtable
define ptr @p_get_proto_data(ptr noundef readnone captures(address) %0, ptr noundef readonly captures(none) %1, i32 noundef %2, i32 noundef %3) local_unnamed_addr #0 {
  %5 = alloca %struct._proto_data, align 8
  call void @llvm.lifetime.start.p0(i64 16, ptr nonnull %5) #8
  store i32 %2, ptr %5, align 8
  %6 = getelementptr inbounds nuw i8, ptr %5, i64 4
  store i32 %3, ptr %6, align 4
  %7 = getelementptr inbounds nuw i8, ptr %5, i64 8
  store ptr null, ptr %7, align 8
  %8 = getelementptr inbounds nuw i8, ptr %1, i64 408
  %9 = load ptr, ptr %8, align 8
  %10 = icmp eq ptr %0, %9
  br i1 %10, label %11, label %13

11:                                               ; preds = %4
  %12 = getelementptr inbounds nuw i8, ptr %1, i64 392
  br label %21

13:                                               ; preds = %4
  %14 = tail call ptr @wmem_file_scope()
  %15 = icmp eq ptr %0, %14
  br i1 %15, label %16, label %20

16:                                               ; preds = %13
  %17 = getelementptr inbounds nuw i8, ptr %1, i64 80
  %18 = load ptr, ptr %17, align 8
  %19 = getelementptr inbounds nuw i8, ptr %18, i64 32
  br label %21

20:                                               ; preds = %13
  tail call void (ptr, ...) @proto_report_dissector_bug(ptr noundef nonnull @.str, ptr noundef nonnull @.str.1, i32 noundef 118, ptr noundef nonnull @.str.2) #6
  unreachable

21:                                               ; preds = %16, %11
  %.sink.in = phi ptr [ %19, %16 ], [ %12, %11 ]
  %.sink = load ptr, ptr %.sink.in, align 8
  %22 = call ptr @g_slist_find_custom(ptr noundef %.sink, ptr noundef nonnull %5, ptr noundef nonnull @p_compare)
  %.not = icmp eq ptr %22, null
  br i1 %.not, label %27, label %23

23:                                               ; preds = %21
  %24 = load ptr, ptr %22, align 8
  %25 = getelementptr inbounds nuw i8, ptr %24, i64 8
  %26 = load ptr, ptr %25, align 8
  br label %27

27:                                               ; preds = %21, %23
  %.010 = phi ptr [ %26, %23 ], [ null, %21 ]
  call void @llvm.lifetime.end.p0(i64 16, ptr nonnull %5) #8
  ret ptr %.010
}